; Function Attrs: mustprogress uwtable
define noundef i32 @_ZN6icu_7718RelativeDateFormat13dayDifferenceERNS_8CalendarER10UErrorCode(ptr noundef nonnull align 8 dereferenceable(192) %0, ptr noundef nonnull align 4 dereferenceable(4) %1) local_unnamed_addr #1 align 2 {
  %3 = load i32, ptr %1, align 4, !tbaa !38
  %4 = icmp slt i32 %3, 1
  br i1 %4, label %5, label %17

5:                                                ; preds = %2
  %6 = load ptr, ptr %0, align 8, !tbaa !3
  %7 = getelementptr inbounds nuw i8, ptr %6, i64 24
  %8 = load ptr, ptr %7, align 8
  %9 = tail call noundef ptr %8(ptr noundef nonnull align 8 dereferenceable(192) %0)
  %10 = tail call noundef double @_ZN6icu_778Calendar6getNowEv()
  tail call void @_ZN6icu_778Calendar15setTimeInMillisEdR10UErrorCode(ptr noundef nonnull align 8 dereferenceable(192) %9, double noundef %10, ptr noundef nonnull align 4 dereferenceable(4) %1)
  %11 = tail call noundef i32 @_ZNK6icu_778Calendar3getE19UCalendarDateFieldsR10UErrorCode(ptr noundef nonnull align 8 dereferenceable(192) %0, i32 noundef 20, ptr noundef nonnull align 4 dereferenceable(4) %1)
  %12 = tail call noundef i32 @_ZNK6icu_778Calendar3getE19UCalendarDateFieldsR10UErrorCode(ptr noundef nonnull align 8 dereferenceable(192) %9, i32 noundef 20, ptr noundef nonnull align 4 dereferenceable(4) %1)
  %13 = sub nsw i32 %11, %12
  %14 = load ptr, ptr %9, align 8, !tbaa !3
  %15 = getelementptr inbounds nuw i8, ptr %14, i64 8
  %16 = load ptr, ptr %15, align 8
  tail call void %16(ptr noundef nonnull align 8 dereferenceable(192) %9) #15
  br label %17

17:                                               ; preds = %2, %5
  %.0 = phi i32 [ %13, %5 ], [ 0, %2 ]
  ret i32 %.0
}